; Function Attrs: mustprogress nofree norecurse nosync nounwind willreturn memory(argmem: readwrite) uwtable
define noundef nonnull align 8 dereferenceable(128) ptr @_ZN32pxrInternal_v0_24__pxrReserved__10GfMatrix4dpLERKS0_(ptr noundef nonnull returned align 8 dereferenceable(128) %0, ptr nocapture noundef nonnull readonly align 8 dereferenceable(128) %1) local_unnamed_addr #2 align 2 {
  %3 = load double, ptr %1, align 8
  %4 = load double, ptr %0, align 8
  %5 = fadd double %3, %4
  store double %5, ptr %0, align 8
  %6 = getelementptr inbounds i8, ptr %1, i64 8
  %7 = load double, ptr %6, align 8
  %8 = getelementptr inbounds i8, ptr %0, i64 8
  %9 = load double, ptr %8, align 8
  %10 = fadd double %7, %9
  store double %10, ptr %8, align 8
  %11 = getelementptr inbounds i8, ptr %1, i64 16
  %12 = load double, ptr %11, align 8
  %13 = getelementptr inbounds i8, ptr %0, i64 16
  %14 = load double, ptr %13, align 8
  %15 = fadd double %12, %14
  store double %15, ptr %13, align 8
  %16 = getelementptr inbounds i8, ptr %1, i64 24
  %17 = load double, ptr %16, align 8
  %18 = getelementptr inbounds i8, ptr %0, i64 24
  %19 = load double, ptr %18, align 8
  %20 = fadd double %17, %19
  store double %20, ptr %18, align 8
  %21 = getelementptr inbounds i8, ptr %1, i64 32
  %22 = load double, ptr %21, align 8
  %23 = getelementptr inbounds i8, ptr %0, i64 32
  %24 = load double, ptr %23, align 8
  %25 = fadd double %22, %24
  store double %25, ptr %23, align 8
  %26 = getelementptr inbounds i8, ptr %1, i64 40
  %27 = load double, ptr %26, align 8
  %28 = getelementptr inbounds i8, ptr %0, i64 40
  %29 = load double, ptr %28, align 8
  %30 = fadd double %27, %29
  store double %30, ptr %28, align 8
  %31 = getelementptr inbounds i8, ptr %1, i64 48
  %32 = load double, ptr %31, align 8
  %33 = getelementptr inbounds i8, ptr %0, i64 48
  %34 = load double, ptr %33, align 8
  %35 = fadd double %32, %34
  store double %35, ptr %33, align 8
  %36 = getelementptr inbounds i8, ptr %1, i64 56
  %37 = load double, ptr %36, align 8
  %38 = getelementptr inbounds i8, ptr %0, i64 56
  %39 = load double, ptr %38, align 8
  %40 = fadd double %37, %39
  store double %40, ptr %38, align 8
  %41 = getelementptr inbounds i8, ptr %1, i64 64
  %42 = load double, ptr %41, align 8
  %43 = getelementptr inbounds i8, ptr %0, i64 64
  %44 = load double, ptr %43, align 8
  %45 = fadd double %42, %44
  store double %45, ptr %43, align 8
  %46 = getelementptr inbounds i8, ptr %1, i64 72
  %47 = load double, ptr %46, align 8
  %48 = getelementptr inbounds i8, ptr %0, i64 72
  %49 = load double, ptr %48, align 8
  %50 = fadd double %47, %49
  store double %50, ptr %48, align 8
  %51 = getelementptr inbounds i8, ptr %1, i64 80
  %52 = load double, ptr %51, align 8
  %53 = getelementptr inbounds i8, ptr %0, i64 80
  %54 = load double, ptr %53, align 8
  %55 = fadd double %52, %54
  store double %55, ptr %53, align 8
  %56 = getelementptr inbounds i8, ptr %1, i64 88
  %57 = load double, ptr %56, align 8
  %58 = getelementptr inbounds i8, ptr %0, i64 88
  %59 = load double, ptr %58, align 8
  %60 = fadd double %57, %59
  store double %60, ptr %58, align 8
  %61 = getelementptr inbounds i8, ptr %1, i64 96
  %62 = load double, ptr %61, align 8
  %63 = getelementptr inbounds i8, ptr %0, i64 96
  %64 = load double, ptr %63, align 8
  %65 = fadd double %62, %64
  store double %65, ptr %63, align 8
  %66 = getelementptr inbounds i8, ptr %1, i64 104
  %67 = load double, ptr %66, align 8
  %68 = getelementptr inbounds i8, ptr %0, i64 104
  %69 = load double, ptr %68, align 8
  %70 = fadd double %67, %69
  store double %70, ptr %68, align 8
  %71 = getelementptr inbounds i8, ptr %1, i64 112
  %72 = load double, ptr %71, align 8
  %73 = getelementptr inbounds i8, ptr %0, i64 112
  %74 = load double, ptr %73, align 8
  %75 = fadd double %72, %74
  store double %75, ptr %73, align 8
  %76 = getelementptr inbounds i8, ptr %1, i64 120
  %77 = load double, ptr %76, align 8
  %78 = getelementptr inbounds i8, ptr %0, i64 120
  %79 = load double, ptr %78, align 8
  %80 = fadd double %77, %79
  store double %80, ptr %78, align 8
  ret ptr %0
}